target datalayout = "e-m:e-p270:32:32-p271:32:32-p272:64:64-i64:64-i128:128-f80:128-n8:16:32:64-S128"
target triple = "x86_64-pc-linux-gnu"

%"class.std::shared_ptr" = type { %"class.std::__shared_ptr" }
%"class.std::__shared_ptr" = type { ptr, %"class.std::__shared_count" }
%"class.std::__shared_count" = type { ptr }
%"class.open_spiel::laser_tag::LaserTagState" = type { %"class.open_spiel::SimMoveState.base", ptr, i32, i32, i32, i32, i8, i8, i32, i32, i32, %"class.std::vector.23", %"struct.std::array", %"struct.std::array", %"struct.std::array", %"class.std::vector.28", %"class.std::vector.28", i32, i32, %"struct.std::array", %"class.std::vector.33" }
%"class.open_spiel::SimMoveState.base" = type { %"class.open_spiel::State.base" }
%"class.open_spiel::State.base" = type <{ ptr, %"class.std::shared_ptr", i32, i32, %"class.std::vector", i32 }>
%"class.std::vector" = type { %"struct.std::_Vector_base" }
%"struct.std::_Vector_base" = type { %"struct.std::_Vector_base<open_spiel::State::PlayerAction, std::allocator<open_spiel::State::PlayerAction>>::_Vector_impl" }
%"struct.std::_Vector_base<open_spiel::State::PlayerAction, std::allocator<open_spiel::State::PlayerAction>>::_Vector_impl" = type { %"struct.std::_Vector_base<open_spiel::State::PlayerAction, std::allocator<open_spiel::State::PlayerAction>>::_Vector_impl_data" }
%"struct.std::_Vector_base<open_spiel::State::PlayerAction, std::allocator<open_spiel::State::PlayerAction>>::_Vector_impl_data" = type { ptr, ptr, ptr }
%"class.std::vector.23" = type { %"struct.std::_Vector_base.24" }
%"struct.std::_Vector_base.24" = type { %"struct.std::_Vector_base<int, std::allocator<int>>::_Vector_impl" }
%"struct.std::_Vector_base<int, std::allocator<int>>::_Vector_impl" = type { %"struct.std::_Vector_base<int, std::allocator<int>>::_Vector_impl_data" }
%"struct.std::_Vector_base<int, std::allocator<int>>::_Vector_impl_data" = type { ptr, ptr, ptr }
%"class.std::vector.28" = type { %"struct.std::_Vector_base.29" }
%"struct.std::_Vector_base.29" = type { %"struct.std::_Vector_base<double, std::allocator<double>>::_Vector_impl" }
%"struct.std::_Vector_base<double, std::allocator<double>>::_Vector_impl" = type { %"struct.std::_Vector_base<double, std::allocator<double>>::_Vector_impl_data" }
%"struct.std::_Vector_base<double, std::allocator<double>>::_Vector_impl_data" = type { ptr, ptr, ptr }
%"struct.std::array" = type { [2 x i32] }
%"class.std::vector.33" = type { %"struct.std::_Vector_base.34" }
%"struct.std::_Vector_base.34" = type { %"struct.std::_Vector_base<char, std::allocator<char>>::_Vector_impl" }
%"struct.std::_Vector_base<char, std::allocator<char>>::_Vector_impl" = type { %"struct.std::_Vector_base<char, std::allocator<char>>::_Vector_impl_data" }
%"struct.std::_Vector_base<char, std::allocator<char>>::_Vector_impl_data" = type { ptr, ptr, ptr }

; Function Attrs: mustprogress nounwind uwtable
define noundef zeroext i1 @_ZNK10open_spiel9laser_tag13LaserTagState10IsTerminalEv(ptr noundef nonnull align 8 dereferenceable(240) %0) unnamed_addr #5 align 2 {
  %2 = alloca ptr, align 8
  store ptr %0, ptr %2, align 8
  %3 = load ptr, ptr %2, align 8
  %4 = getelementptr inbounds nuw %"class.open_spiel::laser_tag::LaserTagState", ptr %3, i32 0, i32 5
  %5 = load i32, ptr %4, align 4
  %6 = icmp sge i32 %5, 0
  br i1 %6, label %7, label %13

7:                                                ; preds = %1
  %8 = getelementptr inbounds nuw %"class.open_spiel::laser_tag::LaserTagState", ptr %3, i32 0, i32 4
  %9 = load i32, ptr %8, align 8
  %10 = getelementptr inbounds nuw %"class.open_spiel::laser_tag::LaserTagState", ptr %3, i32 0, i32 5
  %11 = load i32, ptr %10, align 4
  %12 = icmp sge i32 %9, %11
  br i1 %12, label %23, label %13

13:                                               ; preds = %7, %1
  %14 = getelementptr inbounds nuw %"class.open_spiel::laser_tag::LaserTagState", ptr %3, i32 0, i32 5
  %15 = load i32, ptr %14, align 4
  %16 = icmp slt i32 %15, 0
  br i1 %16, label %17, label %21

17:                                               ; preds = %13
  %18 = getelementptr inbounds nuw %"class.open_spiel::laser_tag::LaserTagState", ptr %3, i32 0, i32 2
  %19 = load i32, ptr %18, align 8
  %20 = icmp sgt i32 %19, 0
  br label %21

21:                                               ; preds = %17, %13
  %22 = phi i1 [ false, %13 ], [ %20, %17 ]
  br label %23

23:                                               ; preds = %21, %7
  %24 = phi i1 [ true, %7 ], [ %22, %21 ]
  ret i1 %24
}